; Function Attrs: mustprogress nofree norecurse nosync nounwind willreturn memory(argmem: read) uwtable
define noundef zeroext i1 @_ZNK6icu_759ScriptSeteqERKS0_(ptr nocapture noundef nonnull readonly align 4 dereferenceable(28) %this, ptr nocapture noundef nonnull readonly align 4 dereferenceable(28) %other) local_unnamed_addr #5 align 2 {
entry:
  %0 = load i32, ptr %this, align 4
  %1 = load i32, ptr %other, align 4
  %cmp5.not6 = icmp eq i32 %0, %1
  br i1 %cmp5.not6, label %for.cond, label %return

for.cond:                                         ; preds = %entry, %for.body
  %indvars.iv7 = phi i64 [ %indvars.iv.next, %for.body ], [ 0, %entry ]
  %indvars.iv.next = add nuw nsw i64 %indvars.iv7, 1
  %exitcond = icmp eq i64 %indvars.iv.next, 7
  br i1 %exitcond, label %return.loopexit, label %for.body, !llvm.loop !4

for.body:                                         ; preds = %for.cond
  %arrayidx = getelementptr inbounds [7 x i32], ptr %this, i64 0, i64 %indvars.iv.next
  %2 = load i32, ptr %arrayidx, align 4
  %arrayidx4 = getelementptr inbounds [7 x i32], ptr %other, i64 0, i64 %indvars.iv.next
  %3 = load i32, ptr %arrayidx4, align 4
  %cmp5.not = icmp eq i32 %2, %3
  br i1 %cmp5.not, label %for.cond, label %return.loopexit, !llvm.loop !4

return.loopexit:                                  ; preds = %for.cond, %for.body
  %cmp.le = icmp ugt i64 %indvars.iv7, 5
  br label %return

return:                                           ; preds = %return.loopexit, %entry
  %cmp.lcssa = phi i1 [ false, %entry ], [ %cmp.le, %return.loopexit ]
  ret i1 %cmp.lcssa
}